target datalayout = "e-m:e-p270:32:32-p271:32:32-p272:64:64-i64:64-i128:128-f80:128-n8:16:32:64-S128"
target triple = "x86_64-unknown-linux-gnu"

@.str = private unnamed_addr constant [22 x i8] c"qemu_in_main_thread()\00", align 1
@.str.1 = private unnamed_addr constant [23 x i8] c"../qemu/block/mirror.c\00", align 1
@__PRETTY_FUNCTION__.commit_active_start = private unnamed_addr constant [177 x i8] c"BlockJob *commit_active_start(const char *, BlockDriverState *, BlockDriverState *, int, int64_t, BlockdevOnError, const char *, BlockCompletionFunc *, void *, _Bool, Error **)\00", align 1

; Function Attrs: nounwind sspstrong uwtable
define dso_local ptr @commit_active_start(ptr noundef %job_id, ptr noundef %bs, ptr noundef %base, i32 noundef %creation_flags, i64 noundef %speed, i32 noundef %on_error, ptr noundef %filter_node_name, ptr noundef %cb, ptr noundef %opaque, i1 noundef zeroext %auto_complete, ptr noundef %errp) #0 {
entry:
  %retval = alloca ptr, align 8
  %job_id.addr = alloca ptr, align 8
  %bs.addr = alloca ptr, align 8
  %base.addr = alloca ptr, align 8
  %creation_flags.addr = alloca i32, align 4
  %speed.addr = alloca i64, align 8
  %on_error.addr = alloca i32, align 4
  %filter_node_name.addr = alloca ptr, align 8
  %cb.addr = alloca ptr, align 8
  %opaque.addr = alloca ptr, align 8
  %auto_complete.addr = alloca i8, align 1
  %errp.addr = alloca ptr, align 8
  %base_read_only = alloca i8, align 1
  %job = alloca ptr, align 8
  store ptr %job_id, ptr %job_id.addr, align 8
  store ptr %bs, ptr %bs.addr, align 8
  store ptr %base, ptr %base.addr, align 8
  store i32 %creation_flags, ptr %creation_flags.addr, align 4
  store i64 %speed, ptr %speed.addr, align 8
  store i32 %on_error, ptr %on_error.addr, align 4
  store ptr %filter_node_name, ptr %filter_node_name.addr, align 8
  store ptr %cb, ptr %cb.addr, align 8
  store ptr %opaque, ptr %opaque.addr, align 8
  %frombool = zext i1 %auto_complete to i8
  store i8 %frombool, ptr %auto_complete.addr, align 1
  store ptr %errp, ptr %errp.addr, align 8
  br label %do.body

do.body:                                          ; preds = %entry
  %call = call zeroext i1 @qemu_in_main_thread()
  br i1 %call, label %if.then, label %if.else

if.then:                                          ; preds = %do.body
  br label %if.end

if.else:                                          ; preds = %do.body
  call void @__assert_fail(ptr noundef @.str, ptr noundef @.str.1, i32 noundef 2062, ptr noundef @__PRETTY_FUNCTION__.commit_active_start) #9
  unreachable

if.end:                                           ; preds = %if.then
  br label %do.end

do.end:                                           ; preds = %if.end
  %0 = load ptr, ptr %base.addr, align 8
  %call1 = call zeroext i1 @bdrv_is_read_only(ptr noundef %0)
  %frombool2 = zext i1 %call1 to i8
  store i8 %frombool2, ptr %base_read_only, align 1
  %1 = load i8, ptr %base_read_only, align 1
  %tobool = trunc i8 %1 to i1
  br i1 %tobool, label %if.then3, label %if.end7

if.then3:                                         ; preds = %do.end
  %2 = load ptr, ptr %base.addr, align 8
  %3 = load ptr, ptr %errp.addr, align 8
  %call4 = call i32 @bdrv_reopen_set_read_only(ptr noundef %2, i1 noundef zeroext false, ptr noundef %3)
  %cmp = icmp slt i32 %call4, 0
  br i1 %cmp, label %if.then5, label %if.end6

if.then5:                                         ; preds = %if.then3
  store ptr null, ptr %retval, align 8
  br label %return

if.end6:                                          ; preds = %if.then3
  br label %if.end7

if.end7:                                          ; preds = %if.end6, %do.end
  %4 = load ptr, ptr %job_id.addr, align 8
  %5 = load ptr, ptr %bs.addr, align 8
  %6 = load i32, ptr %creation_flags.addr, align 4
  %7 = load ptr, ptr %base.addr, align 8
  %8 = load i64, ptr %speed.addr, align 8
  %9 = load i32, ptr %on_error.addr, align 4
  %10 = load i32, ptr %on_error.addr, align 4
  %11 = load ptr, ptr %cb.addr, align 8
  %12 = load ptr, ptr %opaque.addr, align 8
  %13 = load ptr, ptr %base.addr, align 8
  %14 = load i8, ptr %auto_complete.addr, align 1
  %tobool8 = trunc i8 %14 to i1
  %15 = load ptr, ptr %filter_node_name.addr, align 8
  %16 = load ptr, ptr %errp.addr, align 8
  %call9 = call ptr @mirror_start_job(ptr noundef %4, ptr noundef %5, i32 noundef %6, ptr noundef %7, ptr noundef null, i64 noundef %8, i32 noundef 0, i64 noundef 0, i32 noundef 2, i1 noundef zeroext false, i32 noundef %9, i32 noundef %10, i1 noundef zeroext true, ptr noundef %11, ptr noundef %12, ptr noundef @commit_active_job_driver, i1 noundef zeroext false, ptr noundef %13, i1 noundef zeroext %tobool8, ptr noundef %15, i1 noundef zeroext false, i32 noundef 0, ptr noundef %16)
  store ptr %call9, ptr %job, align 8
  %17 = load ptr, ptr %job, align 8
  %tobool10 = icmp ne ptr %17, null
  br i1 %tobool10, label %if.end12, label %if.then11

if.then11:                                        ; preds = %if.end7
  br label %error_restore_flags

if.end12:                                         ; preds = %if.end7
  %18 = load ptr, ptr %job, align 8
  store ptr %18, ptr %retval, align 8
  br label %return

error_restore_flags:                              ; preds = %if.then11
  %19 = load i8, ptr %base_read_only, align 1
  %tobool13 = trunc i8 %19 to i1
  br i1 %tobool13, label %if.then14, label %if.end16

if.then14:                                        ; preds = %error_restore_flags
  %20 = load ptr, ptr %base.addr, align 8
  %call15 = call i32 @bdrv_reopen_set_read_only(ptr noundef %20, i1 noundef zeroext true, ptr noundef null)
  br label %if.end16

if.end16:                                         ; preds = %if.then14, %error_restore_flags
  store ptr null, ptr %retval, align 8
  br label %return

return:                                           ; preds = %if.end16, %if.end12, %if.then5
  %21 = load ptr, ptr %retval, align 8
  ret ptr %21
}