; Function Attrs: nounwind sspstrong uwtable
define dso_local ptr @commit_active_start(ptr noundef %job_id, ptr noundef %bs, ptr noundef %base, i32 noundef %creation_flags, i64 noundef %speed, i32 noundef %on_error, ptr noundef %filter_node_name, ptr noundef %cb, ptr noundef %opaque, i1 noundef zeroext %auto_complete, ptr noundef %errp) local_unnamed_addr #0 {
entry:
  %call = tail call zeroext i1 @qemu_in_main_thread() #12
  br i1 %call, label %do.end, label %if.else

if.else:                                          ; preds = %entry
  tail call void @__assert_fail(ptr noundef nonnull @.str, ptr noundef nonnull @.str.1, i32 noundef 2062, ptr noundef nonnull @__PRETTY_FUNCTION__.commit_active_start) #13
  unreachable

do.end:                                           ; preds = %entry
  %call1 = tail call zeroext i1 @bdrv_is_read_only(ptr noundef %base) #12
  br i1 %call1, label %if.then3, label %if.end7.thread

if.end7.thread:                                   ; preds = %do.end
  %call99 = tail call fastcc ptr @mirror_start_job(ptr noundef %job_id, ptr noundef %bs, i32 noundef %creation_flags, ptr noundef %base, ptr noundef null, i64 noundef %speed, i32 noundef 0, i64 noundef 0, i32 noundef 2, i1 noundef zeroext false, i32 noundef %on_error, i32 noundef %on_error, i1 noundef zeroext true, ptr noundef %cb, ptr noundef %opaque, ptr noundef nonnull @commit_active_job_driver, i1 noundef zeroext false, ptr noundef %base, i1 noundef zeroext %auto_complete, ptr noundef %filter_node_name, i1 noundef zeroext false, i32 noundef 0, ptr noundef %errp)
  br label %return

if.then3:                                         ; preds = %do.end
  %call4 = tail call i32 @bdrv_reopen_set_read_only(ptr noundef %base, i1 noundef zeroext false, ptr noundef %errp) #12
  %cmp = icmp slt i32 %call4, 0
  br i1 %cmp, label %return, label %if.end7

if.end7:                                          ; preds = %if.then3
  %call9 = tail call fastcc ptr @mirror_start_job(ptr noundef %job_id, ptr noundef %bs, i32 noundef %creation_flags, ptr noundef %base, ptr noundef null, i64 noundef %speed, i32 noundef 0, i64 noundef 0, i32 noundef 2, i1 noundef zeroext false, i32 noundef %on_error, i32 noundef %on_error, i1 noundef zeroext true, ptr noundef %cb, ptr noundef %opaque, ptr noundef nonnull @commit_active_job_driver, i1 noundef zeroext false, ptr noundef %base, i1 noundef zeroext %auto_complete, ptr noundef %filter_node_name, i1 noundef zeroext false, i32 noundef 0, ptr noundef %errp)
  %tobool10.not = icmp eq ptr %call9, null
  br i1 %tobool10.not, label %if.then14, label %return

if.then14:                                        ; preds = %if.end7
  %call15 = tail call i32 @bdrv_reopen_set_read_only(ptr noundef %base, i1 noundef zeroext true, ptr noundef null) #12
  br label %return

return:                                           ; preds = %if.end7.thread, %if.end7, %if.then14, %if.then3
  %retval.0 = phi ptr [ null, %if.then3 ], [ %call9, %if.end7 ], [ null, %if.then14 ], [ %call99, %if.end7.thread ]
  ret ptr %retval.0
}